; Function Attrs: mustprogress nounwind uwtable
define internal fastcc void @_ZNSt17_Temporary_bufferIN9__gnu_cxx17__normal_iteratorIPN2cv4text12_GLOBAL__N_116ChainedComponentESt6vectorIS5_SaIS5_EEEES5_ED2Ev(ptr noundef nonnull readonly align 8 captures(none) dereferenceable(24) %0) unnamed_addr #5 align 2 personality ptr @__gxx_personality_v0 {
  %2 = getelementptr inbounds nuw i8, ptr %0, i64 16
  %3 = load ptr, ptr %2, align 8, !tbaa !338
  %4 = getelementptr inbounds nuw i8, ptr %0, i64 8
  %5 = load i64, ptr %4, align 8, !tbaa !339
  %6 = getelementptr inbounds %"struct.cv::text::(anonymous namespace)::ChainedComponent", ptr %3, i64 %5
  %.not4.i.i = icmp eq i64 %5, 0
  br i1 %.not4.i.i, label %_ZSt8_DestroyIPN2cv4text12_GLOBAL__N_116ChainedComponentEEvT_S5_.exit, label %.lr.ph.i.i

.lr.ph.i.i:                                       ; preds = %1, %_ZSt8_DestroyIN2cv4text12_GLOBAL__N_116ChainedComponentEEvPT_.exit.i.i
  %.05.i.i = phi ptr [ %9, %_ZSt8_DestroyIN2cv4text12_GLOBAL__N_116ChainedComponentEEvPT_.exit.i.i ], [ %3, %1 ]
  %7 = getelementptr i8, ptr %.05.i.i, i64 8
  %.0.val.i.i = load ptr, ptr %7, align 8, !tbaa !134
  %.not.i.i.i.i.i.i.i = icmp eq ptr %.0.val.i.i, null
  br i1 %.not.i.i.i.i.i.i.i, label %_ZSt8_DestroyIN2cv4text12_GLOBAL__N_116ChainedComponentEEvPT_.exit.i.i, label %8

8:                                                ; preds = %.lr.ph.i.i
  tail call void @_ZdlPv(ptr noundef nonnull %.0.val.i.i) #25
  br label %_ZSt8_DestroyIN2cv4text12_GLOBAL__N_116ChainedComponentEEvPT_.exit.i.i

_ZSt8_DestroyIN2cv4text12_GLOBAL__N_116ChainedComponentEEvPT_.exit.i.i: ; preds = %8, %.lr.ph.i.i
  %9 = getelementptr inbounds nuw i8, ptr %.05.i.i, i64 48
  %.not.i.i = icmp eq ptr %9, %6
  br i1 %.not.i.i, label %_ZSt8_DestroyIPN2cv4text12_GLOBAL__N_116ChainedComponentEEvT_S5_.exit.loopexit, label %.lr.ph.i.i, !llvm.loop !218

_ZSt8_DestroyIPN2cv4text12_GLOBAL__N_116ChainedComponentEEvT_S5_.exit.loopexit: ; preds = %_ZSt8_DestroyIN2cv4text12_GLOBAL__N_116ChainedComponentEEvPT_.exit.i.i
  %.pre = load ptr, ptr %2, align 8, !tbaa !338
  br label %_ZSt8_DestroyIPN2cv4text12_GLOBAL__N_116ChainedComponentEEvT_S5_.exit

_ZSt8_DestroyIPN2cv4text12_GLOBAL__N_116ChainedComponentEEvT_S5_.exit: ; preds = %_ZSt8_DestroyIPN2cv4text12_GLOBAL__N_116ChainedComponentEEvT_S5_.exit.loopexit, %1
  %10 = phi ptr [ %.pre, %_ZSt8_DestroyIPN2cv4text12_GLOBAL__N_116ChainedComponentEEvT_S5_.exit.loopexit ], [ %3, %1 ]
  tail call void @_ZdlPv(ptr noundef %10) #23
  ret void
}